target datalayout = "e-m:e-p270:32:32-p271:32:32-p272:64:64-i64:64-i128:128-f80:128-n8:16:32:64-S128"
target triple = "x86_64-pc-linux-gnu"

%struct.lzma_next_coder_s = type { ptr, i64, i64, ptr, ptr, ptr, ptr, ptr, ptr, ptr }
%struct.lzma_auto_coder = type { %struct.lzma_next_coder_s, i64, i32, i32 }

; Function Attrs: nounwind uwtable
define internal i32 @auto_decode(ptr noundef %0, ptr noundef %1, ptr noalias noundef %2, ptr noalias noundef %3, i64 noundef %4, ptr noalias noundef %5, ptr noalias noundef %6, i64 noundef %7, i32 noundef %8) #0 {
  %10 = alloca i32, align 4
  %11 = alloca ptr, align 8
  %12 = alloca ptr, align 8
  %13 = alloca ptr, align 8
  %14 = alloca ptr, align 8
  %15 = alloca i64, align 8
  %16 = alloca ptr, align 8
  %17 = alloca ptr, align 8
  %18 = alloca i64, align 8
  %19 = alloca i32, align 4
  %20 = alloca ptr, align 8
  %21 = alloca i32, align 4
  %22 = alloca i32, align 4
  %23 = alloca i32, align 4
  %24 = alloca i32, align 4
  store ptr %0, ptr %11, align 8, !tbaa !4
  store ptr %1, ptr %12, align 8, !tbaa !4
  store ptr %2, ptr %13, align 8, !tbaa !34
  store ptr %3, ptr %14, align 8, !tbaa !35
  store i64 %4, ptr %15, align 8, !tbaa !8
  store ptr %5, ptr %16, align 8, !tbaa !34
  store ptr %6, ptr %17, align 8, !tbaa !35
  store i64 %7, ptr %18, align 8, !tbaa !8
  store i32 %8, ptr %19, align 4, !tbaa !10
  call void @llvm.lifetime.start.p0(i64 8, ptr %20) #6
  %25 = load ptr, ptr %11, align 8, !tbaa !4
  store ptr %25, ptr %20, align 8, !tbaa !4
  %26 = load ptr, ptr %20, align 8, !tbaa !4
  %27 = getelementptr inbounds nuw %struct.lzma_auto_coder, ptr %26, i32 0, i32 3
  %28 = load i32, ptr %27, align 4, !tbaa !33
  switch i32 %28, label %145 [
    i32 0, label %29
    i32 1, label %101
    i32 2, label %135
  ]

29:                                               ; preds = %9
  %30 = load ptr, ptr %14, align 8, !tbaa !35
  %31 = load i64, ptr %30, align 8, !tbaa !8
  %32 = load i64, ptr %15, align 8, !tbaa !8
  %33 = icmp uge i64 %31, %32
  br i1 %33, label %34, label %35

34:                                               ; preds = %29
  store i32 0, ptr %10, align 4
  store i32 1, ptr %21, align 4
  br label %146

35:                                               ; preds = %29
  %36 = load ptr, ptr %20, align 8, !tbaa !4
  %37 = getelementptr inbounds nuw %struct.lzma_auto_coder, ptr %36, i32 0, i32 3
  store i32 1, ptr %37, align 4, !tbaa !33
  %38 = load ptr, ptr %13, align 8, !tbaa !34
  %39 = load ptr, ptr %14, align 8, !tbaa !35
  %40 = load i64, ptr %39, align 8, !tbaa !8
  %41 = getelementptr inbounds nuw i8, ptr %38, i64 %40
  %42 = load i8, ptr %41, align 1, !tbaa !37
  %43 = zext i8 %42 to i32
  %44 = icmp eq i32 %43, 253
  br i1 %44, label %45, label %67

45:                                               ; preds = %35
  br label %46

46:                                               ; preds = %45
  call void @llvm.lifetime.start.p0(i64 4, ptr %22) #6
  %47 = load ptr, ptr %20, align 8, !tbaa !4
  %48 = getelementptr inbounds nuw %struct.lzma_auto_coder, ptr %47, i32 0, i32 0
  %49 = load ptr, ptr %12, align 8, !tbaa !4
  %50 = load ptr, ptr %20, align 8, !tbaa !4
  %51 = getelementptr inbounds nuw %struct.lzma_auto_coder, ptr %50, i32 0, i32 1
  %52 = load i64, ptr %51, align 8, !tbaa !30
  %53 = load ptr, ptr %20, align 8, !tbaa !4
  %54 = getelementptr inbounds nuw %struct.lzma_auto_coder, ptr %53, i32 0, i32 2
  %55 = load i32, ptr %54, align 8, !tbaa !32
  %56 = call i32 @lzma_stream_decoder_init(ptr noundef %48, ptr noundef %49, i64 noundef %52, i32 noundef %55)
  store i32 %56, ptr %22, align 4, !tbaa !10
  %57 = load i32, ptr %22, align 4, !tbaa !10
  %58 = icmp ne i32 %57, 0
  br i1 %58, label %59, label %61

59:                                               ; preds = %46
  %60 = load i32, ptr %22, align 4, !tbaa !10
  store i32 %60, ptr %10, align 4
  store i32 1, ptr %21, align 4
  br label %62

61:                                               ; preds = %46
  store i32 0, ptr %21, align 4
  br label %62

62:                                               ; preds = %61, %59
  call void @llvm.lifetime.end.p0(i64 4, ptr %22) #6
  %63 = load i32, ptr %21, align 4
  switch i32 %63, label %146 [
    i32 0, label %64
  ]

64:                                               ; preds = %62
  br label %65

65:                                               ; preds = %64
  br label %66

66:                                               ; preds = %65
  br label %100

67:                                               ; preds = %35
  br label %68

68:                                               ; preds = %67
  call void @llvm.lifetime.start.p0(i64 4, ptr %23) #6
  %69 = load ptr, ptr %20, align 8, !tbaa !4
  %70 = getelementptr inbounds nuw %struct.lzma_auto_coder, ptr %69, i32 0, i32 0
  %71 = load ptr, ptr %12, align 8, !tbaa !4
  %72 = load ptr, ptr %20, align 8, !tbaa !4
  %73 = getelementptr inbounds nuw %struct.lzma_auto_coder, ptr %72, i32 0, i32 1
  %74 = load i64, ptr %73, align 8, !tbaa !30
  %75 = call i32 @lzma_alone_decoder_init(ptr noundef %70, ptr noundef %71, i64 noundef %74, i1 noundef zeroext true)
  store i32 %75, ptr %23, align 4, !tbaa !10
  %76 = load i32, ptr %23, align 4, !tbaa !10
  %77 = icmp ne i32 %76, 0
  br i1 %77, label %78, label %80

78:                                               ; preds = %68
  %79 = load i32, ptr %23, align 4, !tbaa !10
  store i32 %79, ptr %10, align 4
  store i32 1, ptr %21, align 4
  br label %81

80:                                               ; preds = %68
  store i32 0, ptr %21, align 4
  br label %81

81:                                               ; preds = %80, %78
  call void @llvm.lifetime.end.p0(i64 4, ptr %23) #6
  %82 = load i32, ptr %21, align 4
  switch i32 %82, label %146 [
    i32 0, label %83
  ]

83:                                               ; preds = %81
  br label %84

84:                                               ; preds = %83
  br label %85

85:                                               ; preds = %84
  %86 = load ptr, ptr %20, align 8, !tbaa !4
  %87 = getelementptr inbounds nuw %struct.lzma_auto_coder, ptr %86, i32 0, i32 2
  %88 = load i32, ptr %87, align 8, !tbaa !32
  %89 = and i32 %88, 1
  %90 = icmp ne i32 %89, 0
  br i1 %90, label %91, label %92

91:                                               ; preds = %85
  store i32 2, ptr %10, align 4
  store i32 1, ptr %21, align 4
  br label %146

92:                                               ; preds = %85
  %93 = load ptr, ptr %20, align 8, !tbaa !4
  %94 = getelementptr inbounds nuw %struct.lzma_auto_coder, ptr %93, i32 0, i32 2
  %95 = load i32, ptr %94, align 8, !tbaa !32
  %96 = and i32 %95, 4
  %97 = icmp ne i32 %96, 0
  br i1 %97, label %98, label %99

98:                                               ; preds = %92
  store i32 4, ptr %10, align 4
  store i32 1, ptr %21, align 4
  br label %146

99:                                               ; preds = %92
  br label %100

100:                                              ; preds = %99, %66
  br label %101

101:                                              ; preds = %9, %100
  call void @llvm.lifetime.start.p0(i64 4, ptr %24) #6
  %102 = load ptr, ptr %20, align 8, !tbaa !4
  %103 = getelementptr inbounds nuw %struct.lzma_auto_coder, ptr %102, i32 0, i32 0
  %104 = getelementptr inbounds nuw %struct.lzma_next_coder_s, ptr %103, i32 0, i32 3
  %105 = load ptr, ptr %104, align 8, !tbaa !38
  %106 = load ptr, ptr %20, align 8, !tbaa !4
  %107 = getelementptr inbounds nuw %struct.lzma_auto_coder, ptr %106, i32 0, i32 0
  %108 = getelementptr inbounds nuw %struct.lzma_next_coder_s, ptr %107, i32 0, i32 0
  %109 = load ptr, ptr %108, align 8, !tbaa !39
  %110 = load ptr, ptr %12, align 8, !tbaa !4
  %111 = load ptr, ptr %13, align 8, !tbaa !34
  %112 = load ptr, ptr %14, align 8, !tbaa !35
  %113 = load i64, ptr %15, align 8, !tbaa !8
  %114 = load ptr, ptr %16, align 8, !tbaa !34
  %115 = load ptr, ptr %17, align 8, !tbaa !35
  %116 = load i64, ptr %18, align 8, !tbaa !8
  %117 = load i32, ptr %19, align 4, !tbaa !10
  %118 = call i32 %105(ptr noundef %109, ptr noundef %110, ptr noundef %111, ptr noundef %112, i64 noundef %113, ptr noundef %114, ptr noundef %115, i64 noundef %116, i32 noundef %117)
  store i32 %118, ptr %24, align 4, !tbaa !10
  %119 = load i32, ptr %24, align 4, !tbaa !10
  %120 = icmp ne i32 %119, 1
  br i1 %120, label %127, label %121

121:                                              ; preds = %101
  %122 = load ptr, ptr %20, align 8, !tbaa !4
  %123 = getelementptr inbounds nuw %struct.lzma_auto_coder, ptr %122, i32 0, i32 2
  %124 = load i32, ptr %123, align 8, !tbaa !32
  %125 = and i32 %124, 8
  %126 = icmp eq i32 %125, 0
  br i1 %126, label %127, label %129

127:                                              ; preds = %121, %101
  %128 = load i32, ptr %24, align 4, !tbaa !10
  store i32 %128, ptr %10, align 4
  store i32 1, ptr %21, align 4
  br label %132

129:                                              ; preds = %121
  %130 = load ptr, ptr %20, align 8, !tbaa !4
  %131 = getelementptr inbounds nuw %struct.lzma_auto_coder, ptr %130, i32 0, i32 3
  store i32 2, ptr %131, align 4, !tbaa !33
  store i32 0, ptr %21, align 4
  br label %132

132:                                              ; preds = %129, %127
  call void @llvm.lifetime.end.p0(i64 4, ptr %24) #6
  %133 = load i32, ptr %21, align 4
  switch i32 %133, label %146 [
    i32 0, label %134
  ]

134:                                              ; preds = %132
  br label %135

135:                                              ; preds = %9, %134
  %136 = load ptr, ptr %14, align 8, !tbaa !35
  %137 = load i64, ptr %136, align 8, !tbaa !8
  %138 = load i64, ptr %15, align 8, !tbaa !8
  %139 = icmp ult i64 %137, %138
  br i1 %139, label %140, label %141

140:                                              ; preds = %135
  store i32 9, ptr %10, align 4
  store i32 1, ptr %21, align 4
  br label %146

141:                                              ; preds = %135
  %142 = load i32, ptr %19, align 4, !tbaa !10
  %143 = icmp eq i32 %142, 3
  %144 = select i1 %143, i32 1, i32 0
  store i32 %144, ptr %10, align 4
  store i32 1, ptr %21, align 4
  br label %146

145:                                              ; preds = %9
  store i32 11, ptr %10, align 4
  store i32 1, ptr %21, align 4
  br label %146

146:                                              ; preds = %145, %141, %140, %132, %98, %91, %81, %62, %34
  call void @llvm.lifetime.end.p0(i64 8, ptr %20) #6
  %147 = load i32, ptr %10, align 4
  ret i32 %147
}