; Function Attrs: nounwind uwtable
define internal i32 @auto_decode(ptr noundef %0, ptr noundef %1, ptr noalias noundef %2, ptr noalias noundef %3, i64 noundef %4, ptr noalias noundef %5, ptr noalias noundef %6, i64 noundef %7, i32 noundef %8) #0 {
  %10 = getelementptr inbounds nuw i8, ptr %0, i64 92
  %11 = load i32, ptr %10, align 4, !tbaa !26
  switch i32 %11, label %.thread [
    i32 0, label %12
    i32 1, label %32
    i32 2, label %43
  ]

12:                                               ; preds = %9
  %13 = load i64, ptr %3, align 8, !tbaa !22
  %.not = icmp ult i64 %13, %4
  br i1 %.not, label %14, label %.thread

14:                                               ; preds = %12
  store i32 1, ptr %10, align 4, !tbaa !26
  %15 = getelementptr inbounds nuw i8, ptr %2, i64 %13
  %16 = load i8, ptr %15, align 1, !tbaa !29
  %17 = icmp eq i8 %16, -3
  %18 = getelementptr inbounds nuw i8, ptr %0, i64 80
  %19 = load i64, ptr %18, align 8, !tbaa !23
  br i1 %17, label %20, label %24

20:                                               ; preds = %14
  %21 = getelementptr inbounds nuw i8, ptr %0, i64 88
  %22 = load i32, ptr %21, align 8, !tbaa !25
  %23 = tail call i32 @lzma_stream_decoder_init(ptr noundef nonnull %0, ptr noundef %1, i64 noundef %19, i32 noundef %22) #5
  %.not48 = icmp eq i32 %23, 0
  br i1 %.not48, label %32, label %.thread

24:                                               ; preds = %14
  %25 = tail call i32 @lzma_alone_decoder_init(ptr noundef nonnull %0, ptr noundef %1, i64 noundef %19, i1 noundef zeroext true) #5
  %.not45 = icmp eq i32 %25, 0
  br i1 %.not45, label %26, label %.thread

26:                                               ; preds = %24
  %27 = getelementptr inbounds nuw i8, ptr %0, i64 88
  %28 = load i32, ptr %27, align 8, !tbaa !25
  %29 = and i32 %28, 1
  %.not46 = icmp eq i32 %29, 0
  br i1 %.not46, label %30, label %.thread

30:                                               ; preds = %26
  %31 = and i32 %28, 4
  %.not47 = icmp eq i32 %31, 0
  br i1 %.not47, label %32, label %.thread

32:                                               ; preds = %20, %30, %9
  %33 = getelementptr inbounds nuw i8, ptr %0, i64 24
  %34 = load ptr, ptr %33, align 8, !tbaa !30
  %35 = load ptr, ptr %0, align 8, !tbaa !31
  %36 = tail call i32 %34(ptr noundef %35, ptr noundef %1, ptr noundef %2, ptr noundef %3, i64 noundef %4, ptr noundef %5, ptr noundef %6, i64 noundef %7, i32 noundef %8) #5
  %.not49 = icmp eq i32 %36, 1
  br i1 %.not49, label %37, label %.thread

37:                                               ; preds = %32
  %38 = getelementptr inbounds nuw i8, ptr %0, i64 88
  %39 = load i32, ptr %38, align 8, !tbaa !25
  %40 = and i32 %39, 8
  %41 = icmp eq i32 %40, 0
  br i1 %41, label %.thread, label %42

42:                                               ; preds = %37
  store i32 2, ptr %10, align 4, !tbaa !26
  br label %43

43:                                               ; preds = %42, %9
  %44 = load i64, ptr %3, align 8, !tbaa !22
  %45 = icmp ult i64 %44, %4
  br i1 %45, label %.thread, label %46

46:                                               ; preds = %43
  %47 = icmp eq i32 %8, 3
  %48 = zext i1 %47 to i32
  br label %.thread

.thread:                                          ; preds = %32, %37, %9, %43, %30, %26, %12, %20, %24, %46
  %.1 = phi i32 [ %48, %46 ], [ %23, %20 ], [ %25, %24 ], [ 0, %12 ], [ 2, %26 ], [ 4, %30 ], [ 9, %43 ], [ 11, %9 ], [ 1, %37 ], [ %36, %32 ]
  ret i32 %.1
}